target datalayout = "e-m:e-p270:32:32-p271:32:32-p272:64:64-i64:64-i128:128-f80:128-n8:16:32:64-S128"
target triple = "x86_64-pc-linux-gnu"

%struct._object = type { %union.anon, ptr }
%union.anon = type { i64 }
%struct.lru_cache_object = type { %struct.lru_list_elem, ptr, i32, ptr, i64, ptr, i64, i64, ptr, ptr, ptr, ptr, ptr }
%struct.lru_list_elem = type { %struct._object, ptr, ptr, i64, ptr, ptr }

; Function Attrs: nounwind uwtable
define internal ptr @uncached_lru_cache_wrapper(ptr noundef %0, ptr noundef %1, ptr noundef %2) #0 {
  %4 = alloca ptr, align 8
  %5 = alloca ptr, align 8
  %6 = alloca ptr, align 8
  %7 = alloca ptr, align 8
  %8 = alloca ptr, align 8
  %9 = alloca i32, align 4
  store ptr %0, ptr %5, align 8, !tbaa !155
  store ptr %1, ptr %6, align 8, !tbaa !4
  store ptr %2, ptr %7, align 8, !tbaa !4
  call void @llvm.lifetime.start.p0(i64 8, ptr %8) #8
  %10 = load ptr, ptr %5, align 8, !tbaa !155
  %11 = getelementptr inbounds nuw %struct.lru_cache_object, ptr %10, i32 0, i32 7
  %12 = load i64, ptr %11, align 8, !tbaa !177
  %13 = add i64 %12, 1
  store i64 %13, ptr %11, align 8, !tbaa !177
  %14 = load ptr, ptr %5, align 8, !tbaa !155
  %15 = getelementptr inbounds nuw %struct.lru_cache_object, ptr %14, i32 0, i32 5
  %16 = load ptr, ptr %15, align 8, !tbaa !169
  %17 = load ptr, ptr %6, align 8, !tbaa !4
  %18 = load ptr, ptr %7, align 8, !tbaa !4
  %19 = call ptr @PyObject_Call(ptr noundef %16, ptr noundef %17, ptr noundef %18)
  store ptr %19, ptr %8, align 8, !tbaa !4
  %20 = load ptr, ptr %8, align 8, !tbaa !4
  %21 = icmp ne ptr %20, null
  br i1 %21, label %23, label %22

22:                                               ; preds = %3
  store ptr null, ptr %4, align 8
  store i32 1, ptr %9, align 4
  br label %25

23:                                               ; preds = %3
  %24 = load ptr, ptr %8, align 8, !tbaa !4
  store ptr %24, ptr %4, align 8
  store i32 1, ptr %9, align 4
  br label %25

25:                                               ; preds = %23, %22
  call void @llvm.lifetime.end.p0(i64 8, ptr %8) #8
  %26 = load ptr, ptr %4, align 8
  ret ptr %26
}