; Function Attrs: nounwind uwtable
define internal ptr @uncached_lru_cache_wrapper(ptr noundef captures(none) %0, ptr noundef %1, ptr noundef %2) #0 {
  %4 = getelementptr inbounds nuw i8, ptr %0, i64 104
  %5 = load i64, ptr %4, align 8, !tbaa !168
  %6 = add i64 %5, 1
  store i64 %6, ptr %4, align 8, !tbaa !168
  %7 = getelementptr inbounds nuw i8, ptr %0, i64 88
  %8 = load ptr, ptr %7, align 8, !tbaa !157
  %9 = tail call ptr @PyObject_Call(ptr noundef %8, ptr noundef %1, ptr noundef %2) #9
  ret ptr %9
}